target datalayout = "e-m:e-p270:32:32-p271:32:32-p272:64:64-i64:64-i128:128-f80:128-n8:16:32:64-S128"
target triple = "x86_64-unknown-linux-gnu"

%"class.std::set.0" = type { %"class.std::_Rb_tree.1" }
%"class.std::_Rb_tree.1" = type { %"struct.std::_Rb_tree<QuantLib::Observer *, QuantLib::Observer *, std::_Identity<QuantLib::Observer *>, std::less<QuantLib::Observer *>>::_Rb_tree_impl" }
%"struct.std::_Rb_tree<QuantLib::Observer *, QuantLib::Observer *, std::_Identity<QuantLib::Observer *>, std::less<QuantLib::Observer *>>::_Rb_tree_impl" = type { [8 x i8], %"struct.std::_Rb_tree_header" }
%"struct.std::_Rb_tree_header" = type { %"struct.std::_Rb_tree_node_base", i64 }
%"struct.std::_Rb_tree_node_base" = type { i32, ptr, ptr, ptr }
%"class.boost::detail::shared_count" = type { ptr }
%"class.QuantLib::Observable" = type { ptr, %"class.std::set.0" }
%"class.QuantLib::Handle" = type { %"class.boost::shared_ptr.35" }
%"class.boost::shared_ptr.35" = type { ptr, %"class.boost::detail::shared_count" }
%"class.QuantLib::TermStructureConsistentModel" = type { ptr, %"class.QuantLib::Handle", %"class.QuantLib::Observable" }
%"class.boost::shared_ptr.40" = type { ptr, %"class.boost::detail::shared_count" }

@.str.11 = private unnamed_addr constant [8 x i8] c"px != 0\00", align 1
@.str.12 = private unnamed_addr constant [102 x i8] c"generated/home/dtcxzyw/WorkSpace/SDK/vcpkg/installed/x64-linux/include/boost/smart_ptr/shared_ptr.hpp\00", align 1
@__PRETTY_FUNCTION__._ZNK5boost10shared_ptrIN8QuantLib18YieldTermStructureEEptEv = private unnamed_addr constant [153 x i8] c"typename boost::detail::sp_member_access<T>::type boost::shared_ptr<QuantLib::YieldTermStructure>::operator->() const [T = QuantLib::YieldTermStructure]\00", align 1

; Function Attrs: mustprogress uwtable
define linkonce_odr noundef ptr @_ZNK5boost10shared_ptrIN8QuantLib18YieldTermStructureEEptEv(ptr noundef nonnull align 8 dereferenceable(16) %this) #3 comdat align 2 {
entry:
  %this.addr = alloca ptr, align 8
  store ptr %this, ptr %this.addr, align 8, !tbaa !3
  %this1 = load ptr, ptr %this.addr, align 8
  %px = getelementptr inbounds nuw %"class.boost::shared_ptr.40", ptr %this1, i32 0, i32 0
  %0 = load ptr, ptr %px, align 8, !tbaa !58
  %cmp = icmp ne ptr %0, null
  %lnot = xor i1 %cmp, true
  %lnot2 = xor i1 %lnot, true
  %conv = zext i1 %lnot2 to i64
  %expval = call i64 @llvm.expect.i64(i64 %conv, i64 1)
  %tobool = icmp ne i64 %expval, 0
  br i1 %tobool, label %cond.true, label %cond.false

cond.true:                                        ; preds = %entry
  br label %cond.end

cond.false:                                       ; preds = %entry
  call void @_ZN5boost16assertion_failedEPKcS1_S1_l(ptr noundef @.str.11, ptr noundef @__PRETTY_FUNCTION__._ZNK5boost10shared_ptrIN8QuantLib18YieldTermStructureEEptEv, ptr noundef @.str.12, i64 noundef 784)
  br label %cond.end

cond.end:                                         ; preds = %cond.false, %cond.true
  %px3 = getelementptr inbounds nuw %"class.boost::shared_ptr.40", ptr %this1, i32 0, i32 0
  %1 = load ptr, ptr %px3, align 8, !tbaa !58
  ret ptr %1
}

; Function Attrs: mustprogress nounwind uwtable
define linkonce_odr noundef nonnull align 8 dereferenceable(16) ptr @_ZNK8QuantLib28TermStructureConsistentModel13termStructureEv(ptr noundef nonnull align 8 dereferenceable(24) %this) #2 comdat align 2 {
entry:
  %this.addr = alloca ptr, align 8
  store ptr %this, ptr %this.addr, align 8, !tbaa !3
  %this1 = load ptr, ptr %this.addr, align 8
  %termStructure_ = getelementptr inbounds nuw %"class.QuantLib::TermStructureConsistentModel", ptr %this1, i32 0, i32 1
  ret ptr %termStructure_
}

; Function Attrs: mustprogress uwtable
define noundef double @_ZNK8QuantLib2G21AEdd(ptr noundef nonnull align 8 dereferenceable(200) %this, double noundef %t, double noundef %T) #3 align 2 {
entry:
  %this.addr = alloca ptr, align 8
  %t.addr = alloca double, align 8
  %T.addr = alloca double, align 8
  store ptr %this, ptr %this.addr, align 8, !tbaa !3
  store double %t, ptr %t.addr, align 8, !tbaa !16
  store double %T, ptr %T.addr, align 8, !tbaa !16
  %this1 = load ptr, ptr %this.addr, align 8
  %add.ptr = getelementptr inbounds i8, ptr %this1, i64 88
  %call = call noundef nonnull align 8 dereferenceable(16) ptr @_ZNK8QuantLib28TermStructureConsistentModel13termStructureEv(ptr noundef nonnull align 8 dereferenceable(24) %add.ptr)
  %call2 = call noundef nonnull align 8 dereferenceable(16) ptr @_ZNK8QuantLib6HandleINS_18YieldTermStructureEEptEv(ptr noundef nonnull align 8 dereferenceable(16) %call)
  %call3 = call noundef ptr @_ZNK5boost10shared_ptrIN8QuantLib18YieldTermStructureEEptEv(ptr noundef nonnull align 8 dereferenceable(16) %call2)
  %0 = load double, ptr %T.addr, align 8, !tbaa !16
  %call4 = call noundef double @_ZNK8QuantLib18YieldTermStructure8discountEdb(ptr noundef nonnull align 8 dereferenceable(152) %call3, double noundef %0, i1 noundef zeroext false)
  %add.ptr5 = getelementptr inbounds i8, ptr %this1, i64 88
  %call6 = call noundef nonnull align 8 dereferenceable(16) ptr @_ZNK8QuantLib28TermStructureConsistentModel13termStructureEv(ptr noundef nonnull align 8 dereferenceable(24) %add.ptr5)
  %call7 = call noundef nonnull align 8 dereferenceable(16) ptr @_ZNK8QuantLib6HandleINS_18YieldTermStructureEEptEv(ptr noundef nonnull align 8 dereferenceable(16) %call6)
  %call8 = call noundef ptr @_ZNK5boost10shared_ptrIN8QuantLib18YieldTermStructureEEptEv(ptr noundef nonnull align 8 dereferenceable(16) %call7)
  %1 = load double, ptr %t.addr, align 8, !tbaa !16
  %call9 = call noundef double @_ZNK8QuantLib18YieldTermStructure8discountEdb(ptr noundef nonnull align 8 dereferenceable(152) %call8, double noundef %1, i1 noundef zeroext false)
  %div = fdiv double %call4, %call9
  %2 = load double, ptr %T.addr, align 8, !tbaa !16
  %3 = load double, ptr %t.addr, align 8, !tbaa !16
  %sub = fsub double %2, %3
  %call10 = call noundef double @_ZNK8QuantLib2G21VEd(ptr noundef nonnull align 8 dereferenceable(200) %this1, double noundef %sub)
  %4 = load double, ptr %T.addr, align 8, !tbaa !16
  %call11 = call noundef double @_ZNK8QuantLib2G21VEd(ptr noundef nonnull align 8 dereferenceable(200) %this1, double noundef %4)
  %sub12 = fsub double %call10, %call11
  %5 = load double, ptr %t.addr, align 8, !tbaa !16
  %call13 = call noundef double @_ZNK8QuantLib2G21VEd(ptr noundef nonnull align 8 dereferenceable(200) %this1, double noundef %5)
  %add = fadd double %sub12, %call13
  %mul = fmul double 5.000000e-01, %add
  %call14 = call double @exp(double noundef %mul) #15, !tbaa !57
  %mul15 = fmul double %div, %call14
  ret double %mul15
}