; Function Attrs: mustprogress uwtable
define noundef double @_ZNK8QuantLib2G21AEdd(ptr noundef nonnull align 8 dereferenceable(200) %this, double noundef %t, double noundef %T) local_unnamed_addr #8 align 2 {
entry:
  %termStructure_.i = getelementptr inbounds i8, ptr %this, i64 96
  %call2 = tail call noundef nonnull align 8 dereferenceable(16) ptr @_ZNK8QuantLib6HandleINS_18YieldTermStructureEEptEv(ptr noundef nonnull align 8 dereferenceable(16) %termStructure_.i)
  %0 = load ptr, ptr %call2, align 8, !tbaa !116
  %cmp.not.i = icmp eq ptr %0, null
  br i1 %cmp.not.i, label %cond.false.i, label %_ZNK5boost10shared_ptrIN8QuantLib18YieldTermStructureEEptEv.exit, !prof !85

cond.false.i:                                     ; preds = %entry
  tail call void @_ZN5boost16assertion_failedEPKcS1_S1_l(ptr noundef nonnull @.str.11, ptr noundef nonnull @__PRETTY_FUNCTION__._ZNK5boost10shared_ptrIN8QuantLib18YieldTermStructureEEptEv, ptr noundef nonnull @.str.12, i64 noundef 784)
  %.pre.i = load ptr, ptr %call2, align 8, !tbaa !116
  br label %_ZNK5boost10shared_ptrIN8QuantLib18YieldTermStructureEEptEv.exit

_ZNK5boost10shared_ptrIN8QuantLib18YieldTermStructureEEptEv.exit: ; preds = %entry, %cond.false.i
  %1 = phi ptr [ %0, %entry ], [ %.pre.i, %cond.false.i ]
  %call4 = tail call noundef double @_ZNK8QuantLib18YieldTermStructure8discountEdb(ptr noundef nonnull align 8 dereferenceable(152) %1, double noundef %T, i1 noundef zeroext false)
  %call7 = tail call noundef nonnull align 8 dereferenceable(16) ptr @_ZNK8QuantLib6HandleINS_18YieldTermStructureEEptEv(ptr noundef nonnull align 8 dereferenceable(16) %termStructure_.i)
  %2 = load ptr, ptr %call7, align 8, !tbaa !116
  %cmp.not.i6 = icmp eq ptr %2, null
  br i1 %cmp.not.i6, label %cond.false.i7, label %_ZNK5boost10shared_ptrIN8QuantLib18YieldTermStructureEEptEv.exit9, !prof !85

cond.false.i7:                                    ; preds = %_ZNK5boost10shared_ptrIN8QuantLib18YieldTermStructureEEptEv.exit
  tail call void @_ZN5boost16assertion_failedEPKcS1_S1_l(ptr noundef nonnull @.str.11, ptr noundef nonnull @__PRETTY_FUNCTION__._ZNK5boost10shared_ptrIN8QuantLib18YieldTermStructureEEptEv, ptr noundef nonnull @.str.12, i64 noundef 784)
  %.pre.i8 = load ptr, ptr %call7, align 8, !tbaa !116
  br label %_ZNK5boost10shared_ptrIN8QuantLib18YieldTermStructureEEptEv.exit9

_ZNK5boost10shared_ptrIN8QuantLib18YieldTermStructureEEptEv.exit9: ; preds = %_ZNK5boost10shared_ptrIN8QuantLib18YieldTermStructureEEptEv.exit, %cond.false.i7
  %3 = phi ptr [ %2, %_ZNK5boost10shared_ptrIN8QuantLib18YieldTermStructureEEptEv.exit ], [ %.pre.i8, %cond.false.i7 ]
  %call9 = tail call noundef double @_ZNK8QuantLib18YieldTermStructure8discountEdb(ptr noundef nonnull align 8 dereferenceable(152) %3, double noundef %t, i1 noundef zeroext false)
  %div = fdiv double %call4, %call9
  %sub = fsub double %T, %t
  %call10 = tail call noundef double @_ZNK8QuantLib2G21VEd(ptr noundef nonnull align 8 dereferenceable(200) %this, double noundef %sub)
  %call11 = tail call noundef double @_ZNK8QuantLib2G21VEd(ptr noundef nonnull align 8 dereferenceable(200) %this, double noundef %T)
  %sub12 = fsub double %call10, %call11
  %call13 = tail call noundef double @_ZNK8QuantLib2G21VEd(ptr noundef nonnull align 8 dereferenceable(200) %this, double noundef %t)
  %add = fadd double %sub12, %call13
  %mul = fmul double %add, 5.000000e-01
  %call14 = tail call double @exp(double noundef %mul) #27, !tbaa !115
  %mul15 = fmul double %div, %call14
  ret double %mul15
}